target datalayout = "e-m:e-p270:32:32-p271:32:32-p272:64:64-i64:64-i128:128-f80:128-n8:16:32:64-S128"
target triple = "x86_64-pc-linux-gnu"

%struct._zend_executor_globals = type { %struct._zval_struct, %struct._zval_struct, [32 x ptr], ptr, ptr, %struct._zend_array, %struct._zend_array, ptr, i32, i8, %struct._zval_struct, i32, ptr, ptr, ptr, ptr, ptr, ptr, i64, ptr, ptr, i32, ptr, i32, i64, i32, i32, i32, i8, i8, %struct.zend_atomic_bool_s, %struct.zend_atomic_bool_s, ptr, i64, ptr, ptr, %struct._zend_array, %struct._zend_array, i32, i8, %struct._zval_struct, %struct._zval_struct, %struct._zend_stack, %struct._zend_stack, %struct._zend_stack, ptr, i32, i32, i64, ptr, ptr, ptr, %struct._zend_objects_store, %struct._zend_lazy_objects_store, ptr, ptr, ptr, [3 x %struct._zend_op], ptr, i8, i8, i64, i32, i32, ptr, [16 x %struct._HashTableIterator], ptr, %union._zend_function, %struct._zend_op, %struct._zend_array, i64, %struct.zend_get_gc_buffer, ptr, ptr, ptr, i64, i8, i32, ptr, ptr, i64, %struct._zend_call_stack, i64, i64, %struct._zend_strtod_state, [6 x ptr] }
%struct.zend_atomic_bool_s = type { i8 }
%struct._zval_struct = type { %union._zend_value, %union.anon, %union.anon.2 }
%union._zend_value = type { i64 }
%union.anon = type { i32 }
%union.anon.2 = type { i32 }
%struct._zend_stack = type { i32, i32, i32, ptr }
%struct._zend_objects_store = type { ptr, i32, i32, i32 }
%struct._zend_lazy_objects_store = type { %struct._zend_array }
%struct._HashTableIterator = type { ptr, i32, i32 }
%union._zend_function = type { %struct._zend_op_array }
%struct._zend_op_array = type { i8, [3 x i8], i32, ptr, ptr, ptr, i32, i32, ptr, ptr, ptr, ptr, i32, ptr, i32, i32, i32, ptr, ptr, ptr, ptr, ptr, i32, i32, ptr, ptr, ptr, i32, i32, i32, i32, ptr, ptr, [6 x ptr] }
%struct._zend_op = type { ptr, %union._znode_op, %union._znode_op, %union._znode_op, i32, i32, i8, i8, i8, i8 }
%union._znode_op = type { i32 }
%struct._zend_array = type { %struct._zend_refcounted_h, %union.anon.4, i32, %union.anon.6, i32, i32, i32, i32, i64, ptr }
%struct._zend_refcounted_h = type { i32, %union.anon.3 }
%union.anon.3 = type { i32 }
%union.anon.4 = type { i32 }
%union.anon.6 = type { ptr }
%struct.zend_get_gc_buffer = type { ptr, ptr, ptr }
%struct._zend_call_stack = type { ptr, i64 }
%struct._zend_strtod_state = type { [8 x ptr], ptr, ptr }
%struct._zend_reference = type { %struct._zend_refcounted_h, %struct._zval_struct, %union.zend_property_info_source_list }
%union.zend_property_info_source_list = type { ptr }

@__const.php_flock_common.flock_values = private unnamed_addr constant [3 x i32] [i32 1, i32 2, i32 8], align 4
@.str.1 = private unnamed_addr constant [44 x i8] c"must be one of LOCK_SH, LOCK_EX, or LOCK_UN\00", align 1
@executor_globals = external global %struct._zend_executor_globals, align 8

; Function Attrs: nounwind uwtable
define dso_local void @php_flock_common(ptr noundef %0, i64 noundef %1, i32 noundef %2, ptr noundef %3, ptr noundef %4) #0 {
  %6 = alloca ptr, align 8
  %7 = alloca i64, align 8
  %8 = alloca i32, align 4
  %9 = alloca ptr, align 8
  %10 = alloca ptr, align 8
  %11 = alloca [3 x i32], align 4
  %12 = alloca i32, align 4
  %13 = alloca i32, align 4
  %14 = alloca ptr, align 8
  %15 = alloca ptr, align 8
  %16 = alloca ptr, align 8
  %17 = alloca ptr, align 8
  %18 = alloca ptr, align 8
  %19 = alloca ptr, align 8
  store ptr %0, ptr %6, align 8, !tbaa !27
  store i64 %1, ptr %7, align 8, !tbaa !29
  store i32 %2, ptr %8, align 4, !tbaa !4
  store ptr %3, ptr %9, align 8, !tbaa !30
  store ptr %4, ptr %10, align 8, !tbaa !30
  call void @llvm.lifetime.start.p0(i64 12, ptr %11) #14
  call void @llvm.memcpy.p0.p0.i64(ptr align 4 %11, ptr align 4 @__const.php_flock_common.flock_values, i64 12, i1 false)
  call void @llvm.lifetime.start.p0(i64 4, ptr %12) #14
  %20 = load i64, ptr %7, align 8, !tbaa !29
  %21 = and i64 %20, 3
  %22 = trunc i64 %21 to i32
  store i32 %22, ptr %12, align 4, !tbaa !4
  %23 = load i32, ptr %12, align 4, !tbaa !4
  %24 = icmp slt i32 %23, 1
  br i1 %24, label %28, label %25

25:                                               ; preds = %5
  %26 = load i32, ptr %12, align 4, !tbaa !4
  %27 = icmp sgt i32 %26, 3
  br i1 %27, label %28, label %35

28:                                               ; preds = %25, %5
  %29 = load i32, ptr %8, align 4, !tbaa !4
  call void (i32, ptr, ...) @zend_argument_value_error(i32 noundef %29, ptr noundef @.str.1)
  br label %30

30:                                               ; preds = %28
  %31 = load ptr, ptr getelementptr inbounds nuw (%struct._zend_executor_globals, ptr @executor_globals, i32 0, i32 54), align 8, !tbaa !32
  %32 = icmp ne ptr %31, null
  call void @llvm.assume(i1 %32)
  store i32 1, ptr %13, align 4
  br label %165

33:                                               ; No predecessors!
  br label %34

34:                                               ; preds = %33
  br label %35

35:                                               ; preds = %34, %25
  %36 = load ptr, ptr %9, align 8, !tbaa !30
  %37 = icmp ne ptr %36, null
  br i1 %37, label %38, label %80

38:                                               ; preds = %35
  br label %39

39:                                               ; preds = %38
  br label %40

40:                                               ; preds = %39
  call void @llvm.lifetime.start.p0(i64 8, ptr %14) #14
  %41 = load ptr, ptr %9, align 8, !tbaa !30
  store ptr %41, ptr %14, align 8, !tbaa !30
  call void @llvm.lifetime.start.p0(i64 8, ptr %15) #14
  %42 = load ptr, ptr %14, align 8, !tbaa !30
  %43 = getelementptr inbounds nuw %struct._zval_struct, ptr %42, i32 0, i32 0
  %44 = load ptr, ptr %43, align 8, !tbaa !17
  store ptr %44, ptr %15, align 8, !tbaa !60
  %45 = load ptr, ptr %15, align 8, !tbaa !60
  %46 = getelementptr inbounds nuw %struct._zend_reference, ptr %45, i32 0, i32 2
  %47 = load ptr, ptr %46, align 8, !tbaa !17
  %48 = icmp ne ptr %47, null
  %49 = xor i1 %48, true
  %50 = xor i1 %49, true
  %51 = zext i1 %50 to i32
  %52 = sext i32 %51 to i64
  %53 = call i64 @llvm.expect.i64(i64 %52, i64 0)
  %54 = icmp ne i64 %53, 0
  br i1 %54, label %55, label %58

55:                                               ; preds = %40
  %56 = load ptr, ptr %15, align 8, !tbaa !60
  %57 = call i32 @zend_try_assign_typed_ref_long(ptr noundef %56, i64 noundef 0)
  store i32 6, ptr %13, align 4
  br label %61

58:                                               ; preds = %40
  %59 = load ptr, ptr %15, align 8, !tbaa !60
  %60 = getelementptr inbounds nuw %struct._zend_reference, ptr %59, i32 0, i32 1
  store ptr %60, ptr %14, align 8, !tbaa !30
  store i32 0, ptr %13, align 4
  br label %61

61:                                               ; preds = %58, %55
  call void @llvm.lifetime.end.p0(i64 8, ptr %15) #14
  %62 = load i32, ptr %13, align 4
  switch i32 %62, label %73 [
    i32 0, label %63
  ]

63:                                               ; preds = %61
  %64 = load ptr, ptr %14, align 8, !tbaa !30
  call void @zval_ptr_safe_dtor(ptr noundef %64)
  br label %65

65:                                               ; preds = %63
  call void @llvm.lifetime.start.p0(i64 8, ptr %16) #14
  %66 = load ptr, ptr %14, align 8, !tbaa !30
  store ptr %66, ptr %16, align 8, !tbaa !30
  %67 = load ptr, ptr %16, align 8, !tbaa !30
  %68 = getelementptr inbounds nuw %struct._zval_struct, ptr %67, i32 0, i32 0
  store i64 0, ptr %68, align 8, !tbaa !17
  %69 = load ptr, ptr %16, align 8, !tbaa !30
  %70 = getelementptr inbounds nuw %struct._zval_struct, ptr %69, i32 0, i32 1
  store i32 4, ptr %70, align 8, !tbaa !17
  call void @llvm.lifetime.end.p0(i64 8, ptr %16) #14
  br label %71

71:                                               ; preds = %65
  br label %72

72:                                               ; preds = %71
  store i32 0, ptr %13, align 4
  br label %73

73:                                               ; preds = %72, %61
  call void @llvm.lifetime.end.p0(i64 8, ptr %14) #14
  %74 = load i32, ptr %13, align 4
  switch i32 %74, label %168 [
    i32 0, label %75
    i32 6, label %77
  ]

75:                                               ; preds = %73
  br label %76

76:                                               ; preds = %75
  br label %77

77:                                               ; preds = %76, %73
  br label %78

78:                                               ; preds = %77
  br label %79

79:                                               ; preds = %78
  br label %80

80:                                               ; preds = %79, %35
  %81 = load i32, ptr %12, align 4, !tbaa !4
  %82 = sub nsw i32 %81, 1
  %83 = sext i32 %82 to i64
  %84 = getelementptr inbounds [3 x i32], ptr %11, i64 0, i64 %83
  %85 = load i32, ptr %84, align 4, !tbaa !4
  %86 = load i64, ptr %7, align 8, !tbaa !29
  %87 = and i64 %86, 4
  %88 = icmp ne i64 %87, 0
  %89 = select i1 %88, i32 4, i32 0
  %90 = or i32 %85, %89
  store i32 %90, ptr %12, align 4, !tbaa !4
  %91 = load ptr, ptr %6, align 8, !tbaa !27
  %92 = load i32, ptr %12, align 4, !tbaa !4
  %93 = call i32 @_php_stream_set_option(ptr noundef %91, i32 noundef 6, i32 noundef %92, ptr noundef null)
  %94 = icmp ne i32 %93, 0
  br i1 %94, label %95, label %156

95:                                               ; preds = %80
  %96 = load i64, ptr %7, align 8, !tbaa !29
  %97 = icmp ne i64 %96, 0
  br i1 %97, label %98, label %147

98:                                               ; preds = %95
  %99 = call ptr @__errno_location() #15
  %100 = load i32, ptr %99, align 4, !tbaa !4
  %101 = icmp eq i32 %100, 11
  br i1 %101, label %102, label %147

102:                                              ; preds = %98
  %103 = load ptr, ptr %9, align 8, !tbaa !30
  %104 = icmp ne ptr %103, null
  br i1 %104, label %105, label %147

105:                                              ; preds = %102
  br label %106

106:                                              ; preds = %105
  br label %107

107:                                              ; preds = %106
  call void @llvm.lifetime.start.p0(i64 8, ptr %17) #14
  %108 = load ptr, ptr %9, align 8, !tbaa !30
  store ptr %108, ptr %17, align 8, !tbaa !30
  call void @llvm.lifetime.start.p0(i64 8, ptr %18) #14
  %109 = load ptr, ptr %17, align 8, !tbaa !30
  %110 = getelementptr inbounds nuw %struct._zval_struct, ptr %109, i32 0, i32 0
  %111 = load ptr, ptr %110, align 8, !tbaa !17
  store ptr %111, ptr %18, align 8, !tbaa !60
  %112 = load ptr, ptr %18, align 8, !tbaa !60
  %113 = getelementptr inbounds nuw %struct._zend_reference, ptr %112, i32 0, i32 2
  %114 = load ptr, ptr %113, align 8, !tbaa !17
  %115 = icmp ne ptr %114, null
  %116 = xor i1 %115, true
  %117 = xor i1 %116, true
  %118 = zext i1 %117 to i32
  %119 = sext i32 %118 to i64
  %120 = call i64 @llvm.expect.i64(i64 %119, i64 0)
  %121 = icmp ne i64 %120, 0
  br i1 %121, label %122, label %125

122:                                              ; preds = %107
  %123 = load ptr, ptr %18, align 8, !tbaa !60
  %124 = call i32 @zend_try_assign_typed_ref_long(ptr noundef %123, i64 noundef 1)
  store i32 12, ptr %13, align 4
  br label %128

125:                                              ; preds = %107
  %126 = load ptr, ptr %18, align 8, !tbaa !60
  %127 = getelementptr inbounds nuw %struct._zend_reference, ptr %126, i32 0, i32 1
  store ptr %127, ptr %17, align 8, !tbaa !30
  store i32 0, ptr %13, align 4
  br label %128

128:                                              ; preds = %125, %122
  call void @llvm.lifetime.end.p0(i64 8, ptr %18) #14
  %129 = load i32, ptr %13, align 4
  switch i32 %129, label %140 [
    i32 0, label %130
  ]

130:                                              ; preds = %128
  %131 = load ptr, ptr %17, align 8, !tbaa !30
  call void @zval_ptr_safe_dtor(ptr noundef %131)
  br label %132

132:                                              ; preds = %130
  call void @llvm.lifetime.start.p0(i64 8, ptr %19) #14
  %133 = load ptr, ptr %17, align 8, !tbaa !30
  store ptr %133, ptr %19, align 8, !tbaa !30
  %134 = load ptr, ptr %19, align 8, !tbaa !30
  %135 = getelementptr inbounds nuw %struct._zval_struct, ptr %134, i32 0, i32 0
  store i64 1, ptr %135, align 8, !tbaa !17
  %136 = load ptr, ptr %19, align 8, !tbaa !30
  %137 = getelementptr inbounds nuw %struct._zval_struct, ptr %136, i32 0, i32 1
  store i32 4, ptr %137, align 8, !tbaa !17
  call void @llvm.lifetime.end.p0(i64 8, ptr %19) #14
  br label %138

138:                                              ; preds = %132
  br label %139

139:                                              ; preds = %138
  store i32 0, ptr %13, align 4
  br label %140

140:                                              ; preds = %139, %128
  call void @llvm.lifetime.end.p0(i64 8, ptr %17) #14
  %141 = load i32, ptr %13, align 4
  switch i32 %141, label %168 [
    i32 0, label %142
    i32 12, label %144
  ]

142:                                              ; preds = %140
  br label %143

143:                                              ; preds = %142
  br label %144

144:                                              ; preds = %143, %140
  br label %145

145:                                              ; preds = %144
  br label %146

146:                                              ; preds = %145
  br label %147

147:                                              ; preds = %146, %102, %98, %95
  br label %148

148:                                              ; preds = %147
  br label %149

149:                                              ; preds = %148
  %150 = load ptr, ptr %10, align 8, !tbaa !30
  %151 = getelementptr inbounds nuw %struct._zval_struct, ptr %150, i32 0, i32 1
  store i32 2, ptr %151, align 8, !tbaa !17
  br label %152

152:                                              ; preds = %149
  br label %153

153:                                              ; preds = %152
  store i32 1, ptr %13, align 4
  br label %165

154:                                              ; No predecessors!
  br label %155

155:                                              ; preds = %154
  br label %156

156:                                              ; preds = %155, %80
  br label %157

157:                                              ; preds = %156
  br label %158

158:                                              ; preds = %157
  %159 = load ptr, ptr %10, align 8, !tbaa !30
  %160 = getelementptr inbounds nuw %struct._zval_struct, ptr %159, i32 0, i32 1
  store i32 3, ptr %160, align 8, !tbaa !17
  br label %161

161:                                              ; preds = %158
  br label %162

162:                                              ; preds = %161
  store i32 1, ptr %13, align 4
  br label %165

163:                                              ; No predecessors!
  br label %164

164:                                              ; preds = %163
  store i32 0, ptr %13, align 4
  br label %165

165:                                              ; preds = %164, %162, %153, %30
  call void @llvm.lifetime.end.p0(i64 4, ptr %12) #14
  call void @llvm.lifetime.end.p0(i64 12, ptr %11) #14
  %166 = load i32, ptr %13, align 4
  switch i32 %166, label %168 [
    i32 0, label %167
    i32 1, label %167
  ]

167:                                              ; preds = %165, %165
  ret void

168:                                              ; preds = %165, %140, %73
  unreachable
}