; Function Attrs: nounwind uwtable
define dso_local void @php_flock_common(ptr noundef %0, i64 noundef %1, i32 noundef %2, ptr noundef readonly captures(address_is_null) %3, ptr noundef writeonly captures(none) %4) local_unnamed_addr #1 {
  %6 = trunc i64 %1 to i32
  %7 = and i32 %6, 3
  %8 = icmp eq i32 %7, 0
  br i1 %8, label %9, label %12

9:                                                ; preds = %5
  tail call void (i32, ptr, ...) @zend_argument_value_error(i32 noundef %2, ptr noundef nonnull @.str.1) #18
  %10 = load ptr, ptr getelementptr inbounds nuw (i8, ptr @executor_globals, i64 960), align 8, !tbaa !23
  %11 = icmp ne ptr %10, null
  tail call void @llvm.assume(i1 %11)
  br label %49

12:                                               ; preds = %5
  %13 = icmp ne ptr %3, null
  br i1 %13, label %14, label %23

14:                                               ; preds = %12
  %15 = load ptr, ptr %3, align 8, !tbaa !21
  %16 = getelementptr inbounds nuw i8, ptr %15, i64 24
  %17 = load ptr, ptr %16, align 8, !tbaa !21
  %.not = icmp eq ptr %17, null
  br i1 %.not, label %20, label %18, !prof !52

18:                                               ; preds = %14
  %19 = tail call i32 @zend_try_assign_typed_ref_long(ptr noundef nonnull %15, i64 noundef 0) #18
  br label %23

20:                                               ; preds = %14
  %21 = getelementptr inbounds nuw i8, ptr %15, i64 8
  tail call void @zval_ptr_safe_dtor(ptr noundef nonnull %21) #18
  store i64 0, ptr %21, align 8, !tbaa !21
  %22 = getelementptr inbounds nuw i8, ptr %15, i64 16
  store i32 4, ptr %22, align 8, !tbaa !21
  br label %23

23:                                               ; preds = %18, %20, %12
  %24 = add nsw i32 %7, -1
  %25 = zext nneg i32 %24 to i64
  %26 = getelementptr inbounds nuw [3 x i32], ptr @__const.php_flock_common.flock_values, i64 0, i64 %25
  %27 = load i32, ptr %26, align 4, !tbaa !4
  %28 = and i32 %6, 4
  %29 = or i32 %27, %28
  %30 = tail call i32 @_php_stream_set_option(ptr noundef %0, i32 noundef 6, i32 noundef %29, ptr noundef null) #18
  %.not42 = icmp eq i32 %30, 0
  br i1 %.not42, label %47, label %31

31:                                               ; preds = %23
  %.not43 = icmp eq i64 %1, 0
  br i1 %.not43, label %45, label %32

32:                                               ; preds = %31
  %33 = tail call ptr @__errno_location() #19
  %34 = load i32, ptr %33, align 4, !tbaa !4
  %35 = icmp eq i32 %34, 11
  %or.cond4 = and i1 %13, %35
  br i1 %or.cond4, label %36, label %45

36:                                               ; preds = %32
  %37 = load ptr, ptr %3, align 8, !tbaa !21
  %38 = getelementptr inbounds nuw i8, ptr %37, i64 24
  %39 = load ptr, ptr %38, align 8, !tbaa !21
  %.not44 = icmp eq ptr %39, null
  br i1 %.not44, label %42, label %40, !prof !52

40:                                               ; preds = %36
  %41 = tail call i32 @zend_try_assign_typed_ref_long(ptr noundef nonnull %37, i64 noundef 1) #18
  br label %45

42:                                               ; preds = %36
  %43 = getelementptr inbounds nuw i8, ptr %37, i64 8
  tail call void @zval_ptr_safe_dtor(ptr noundef nonnull %43) #18
  store i64 1, ptr %43, align 8, !tbaa !21
  %44 = getelementptr inbounds nuw i8, ptr %37, i64 16
  store i32 4, ptr %44, align 8, !tbaa !21
  br label %45

45:                                               ; preds = %40, %42, %32, %31
  %46 = getelementptr inbounds nuw i8, ptr %4, i64 8
  store i32 2, ptr %46, align 8, !tbaa !21
  br label %49

47:                                               ; preds = %23
  %48 = getelementptr inbounds nuw i8, ptr %4, i64 8
  store i32 3, ptr %48, align 8, !tbaa !21
  br label %49

49:                                               ; preds = %47, %45, %9
  ret void
}